target datalayout = "e-m:e-p270:32:32-p271:32:32-p272:64:64-i64:64-i128:128-f80:128-n8:16:32:64-S128"
target triple = "x86_64-pc-linux-gnu"

; Function Attrs: nounwind uwtable
define ptr @wcsncat(ptr noundef %0, ptr noundef %1, i64 noundef %2) #0 {
  %4 = alloca ptr, align 8
  %5 = alloca ptr, align 8
  %6 = alloca i64, align 8
  %7 = alloca ptr, align 8
  store ptr %0, ptr %4, align 8
  store ptr %1, ptr %5, align 8
  store i64 %2, ptr %6, align 8
  %8 = load ptr, ptr %4, align 8
  store ptr %8, ptr %7, align 8
  %9 = load ptr, ptr %4, align 8
  %10 = call i64 @wcslen(ptr noundef %9) #2
  %11 = load ptr, ptr %4, align 8
  %12 = getelementptr inbounds i32, ptr %11, i64 %10
  store ptr %12, ptr %4, align 8
  br label %13

13:                                               ; preds = %23, %3
  %14 = load i64, ptr %6, align 8
  %15 = add i64 %14, -1
  store i64 %15, ptr %6, align 8
  %16 = icmp ne i64 %14, 0
  br i1 %16, label %17, label %21

17:                                               ; preds = %13
  %18 = load ptr, ptr %5, align 8
  %19 = load i32, ptr %18, align 4
  %20 = icmp ne i32 %19, 0
  br label %21

21:                                               ; preds = %17, %13
  %22 = phi i1 [ false, %13 ], [ %20, %17 ]
  br i1 %22, label %23, label %29

23:                                               ; preds = %21
  %24 = load ptr, ptr %5, align 8
  %25 = getelementptr inbounds i32, ptr %24, i32 1
  store ptr %25, ptr %5, align 8
  %26 = load i32, ptr %24, align 4
  %27 = load ptr, ptr %4, align 8
  %28 = getelementptr inbounds i32, ptr %27, i32 1
  store ptr %28, ptr %4, align 8
  store i32 %26, ptr %27, align 4
  br label %13, !llvm.loop !6

29:                                               ; preds = %21
  %30 = load ptr, ptr %4, align 8
  %31 = getelementptr inbounds i32, ptr %30, i32 1
  store ptr %31, ptr %4, align 8
  store i32 0, ptr %30, align 4
  %32 = load ptr, ptr %7, align 8
  ret ptr %32
}

; Function Attrs: nounwind willreturn memory(read)
declare i64 @wcslen(ptr noundef) #1


!llvm.module.flags = !{!0, !1, !2, !3, !4, !5}

!0 = !{i32 7, !"Dwarf Version", i32 5}
!1 = !{i32 2, !"Debug Info Version", i32 3}
!2 = !{i32 1, !"wchar_size", i32 4}
!3 = !{i32 8, !"PIC Level", i32 2}
!4 = !{i32 7, !"uwtable", i32 2}
!5 = !{i32 7, !"frame-pointer", i32 2}
!6 = distinct !{!6, !7}
!7 = !{!"llvm.loop.mustprogress"}
